Certificate:
    Data:
        Version: 3 (0x2)
        Serial Number:
            9b:06:c9:79:e2:bb:b9:9f:a5:aa:41:9d:71:00:c0:a2
        Signature Algorithm: ecdsa-with-SHA512
        Issuer: CN=Keiros
        Validity
            Not Before: Jan 25 16:18:04 2022 GMT
            Not After : Jan  9 16:18:04 2025 GMT
        Subject: C=US, ST=Virginia, L=McLean, O=Keiros, OU=Community, CN=test-server/emailAddress=keirosllc@protonmail.com
        Subject Public Key Info:
            Public Key Algorithm: rsaEncryption
                RSA Public-Key: (2048 bit)
                Modulus:
                    00:dd:6a:db:5d:39:8e:f2:f1:96:f4:f1:9a:5f:26:
                    41:a9:e3:43:ad:b0:50:86:1e:9f:ff:03:cd:d7:19:
                    e7:d2:20:d5:21:aa:e2:d4:62:fa:ed:82:aa:99:0a:
                    d3:20:7d:83:0d:92:e4:20:92:4d:20:16:ab:8d:60:
                    cf:5b:70:76:2a:02:7c:06:86:75:ef:9d:20:79:66:
                    42:1b:7a:24:db:4a:5d:26:fc:3e:e9:03:80:4d:6d:
                    c0:df:cd:90:50:1a:44:51:4c:b7:f2:d9:cf:0d:39:
                    89:68:ed:5d:f7:55:c6:e2:49:67:05:a0:3c:55:e2:
                    45:c6:df:f2:fe:41:f0:52:18:fb:33:1c:ec:11:c7:
                    8d:b3:70:c8:2f:5c:52:ff:3f:94:4f:67:5c:8f:bd:
                    d5:67:70:fb:d2:97:76:55:b5:29:af:ff:fd:5e:03:
                    c7:e7:59:b2:32:0d:35:10:c5:eb:0d:de:4d:b5:0e:
                    e4:d6:bf:a6:f9:be:b6:60:a2:af:fe:1f:9f:f4:9e:
                    a3:db:ae:c4:bb:5f:1a:db:39:81:35:95:cb:0a:b0:
                    20:41:20:85:30:b7:b6:90:fb:41:c8:b0:63:43:5d:
                    47:31:99:7e:d4:70:d6:24:28:70:49:55:c2:e8:3e:
                    b8:28:e8:7f:d1:74:96:2d:d7:d3:01:d6:a3:66:7e:
                    89:53
                Exponent: 65537 (0x10001)
        X509v3 extensions:
            X509v3 Basic Constraints: 
                CA:FALSE
            X509v3 Subject Key Identifier: 
                48:ED:8A:0A:16:88:0D:B6:0B:16:62:28:1E:F7:B2:EC:A9:C7:5B:8F
            X509v3 Authority Key Identifier: 
                keyid:25:B4:17:CC:37:8C:66:DD:CA:6F:C1:A5:B9:AD:28:75:1D:EB:FD:56
                DirName:/CN=Keiros
                serial:57:C5:4B:F9:FD:4C:23:83:EC:4C:E0:96:97:C5:04:4A:A1:DA:45:50

            X509v3 Extended Key Usage: 
                TLS Web Server Authentication
            X509v3 Key Usage: 
                Digital Signature, Key Encipherment
            Netscape Comment: 
                Easy-RSA (v3.0.6) Generated Certificate
            Netscape Cert Type: 
                SSL Server
            X509v3 Subject Alternative Name: 
                DNS:test-server
    Signature Algorithm: ecdsa-with-SHA512
         30:81:88:02:42:01:30:6e:6e:b6:d1:15:d2:c3:4e:18:67:c9:
         42:bb:df:64:6a:e2:e4:50:0e:c5:04:0b:66:dd:1b:e4:9c:15:
         1b:ca:82:ee:0b:eb:55:b1:ac:dd:21:f9:12:8e:69:69:7e:3f:
         48:4c:6e:55:19:f9:e0:d9:42:e9:8a:c8:b4:25:85:61:0c:02:
         42:00:e2:90:bc:3d:94:05:e0:4c:1c:9c:bf:35:b5:72:5e:8b:
         51:6c:1f:61:c7:5e:de:dd:9a:9c:86:0c:3f:68:85:1d:9a:0d:
         4b:de:04:d2:ec:8c:c7:f0:83:76:5d:6f:19:95:73:ca:d4:76:
         aa:74:71:9a:40:11:14:e8:d4:b2:2e:14:b9
-----BEGIN CERTIFICATE-----
MIIDuDCCAxmgAwIBAgIRAJsGyXniu7mfpapBnXEAwKIwCgYIKoZIzj0EAwQwETEP
MA0GA1UEAwwGS2Vpcm9zMB4XDTIyMDEyNTE2MTgwNFoXDTI1MDEwOTE2MTgwNFow
gZUxCzAJBgNVBAYTAlVTMREwDwYDVQQIDAhWaXJnaW5pYTEPMA0GA1UEBwwGTWNM
ZWFuMQ8wDQYDVQQKDAZLZWlyb3MxEjAQBgNVBAsMCUNvbW11bml0eTEUMBIGA1UE
AwwLdGVzdC1zZXJ2ZXIxJzAlBgkqhkiG9w0BCQEWGGtlaXJvc2xsY0Bwcm90b25t
YWlsLmNvbTCCASIwDQYJKoZIhvcNAQEBBQADggEPADCCAQoCggEBAN1q2105jvLx
lvTxml8mQanjQ62wUIYen/8DzdcZ59Ig1SGq4tRi+u2CqpkK0yB9gw2S5CCSTSAW
q41gz1twdioCfAaGde+dIHlmQht6JNtKXSb8PukDgE1twN/NkFAaRFFMt/LZzw05
iWjtXfdVxuJJZwWgPFXiRcbf8v5B8FIY+zMc7BHHjbNwyC9cUv8/lE9nXI+91Wdw
+9KXdlW1Ka///V4Dx+dZsjINNRDF6w3eTbUO5Na/pvm+tmCir/4fn/Seo9uuxLtf
Gts5gTWVywqwIEEghTC3tpD7QciwY0NdRzGZftRw1iQocElVwug+uCjof9F0li3X
0wHWo2Z+iVMCAwEAAaOCAQAwgf0wCQYDVR0TBAIwADAdBgNVHQ4EFgQUSO2KChaI
DbYLFmIoHvey7KnHW48wTAYDVR0jBEUwQ4AUJbQXzDeMZt3Kb8Glua0odR3r/Vah
FaQTMBExDzANBgNVBAMMBktlaXJvc4IUV8VL+f1MI4PsTOCWl8UESqHaRVAwEwYD
VR0lBAwwCgYIKwYBBQUHAwEwCwYDVR0PBAQDAgWgMDYGCWCGSAGG+EIBDQQpFidF
YXN5LVJTQSAodjMuMC42KSBHZW5lcmF0ZWQgQ2VydGlmaWNhdGUwEQYJYIZIAYb4
QgEBBAQDAgZAMBYGA1UdEQQPMA2CC3Rlc3Qtc2VydmVyMAoGCCqGSM49BAMEA4GM
ADCBiAJCATBubrbRFdLDThhnyUK732Rq4uRQDsUEC2bdG+ScFRvKgu4L61WxrN0h
+RKOaWl+P0hMblUZ+eDZQumKyLQlhWEMAkIA4pC8PZQF4EwcnL81tXJei1FsH2HH
Xt7dmpyGDD9ohR2aDUveBNLsjMfwg3ZdbxmVc8rUdqp0cZpAERTo1LIuFLk=
-----END CERTIFICATE-----
